target datalayout = "e-m:e-p270:32:32-p271:32:32-p272:64:64-i64:64-i128:128-f80:128-n8:16:32:64-S128"
target triple = "x86_64-pc-linux-gnu"

%struct.keytype_desc_st = type { ptr, ptr, ptr, i32, i32, ptr, ptr, ptr, ptr, ptr, ptr, ptr, ptr }
%struct.ossl_dispatch_st = type { i32, ptr }
%struct.der2key_ctx_st = type { ptr, ptr, i32, i8 }

; Function Attrs: inlinehint nounwind uwtable
define internal ptr @OSSL_FUNC_keymgmt_export(ptr noundef %0) #3 {
  %2 = alloca ptr, align 8
  store ptr %0, ptr %2, align 8, !tbaa !9
  %3 = load ptr, ptr %2, align 8, !tbaa !9
  %4 = getelementptr inbounds nuw %struct.ossl_dispatch_st, ptr %3, i32 0, i32 1
  %5 = load ptr, ptr %4, align 8, !tbaa !29
  ret ptr %5
}

; Function Attrs: nounwind uwtable
define internal ptr @xor_prov_get_keymgmt_export(ptr noundef %0) #0 {
  %2 = alloca ptr, align 8
  %3 = alloca ptr, align 8
  store ptr %0, ptr %3, align 8, !tbaa !9
  br label %4

4:                                                ; preds = %18, %1
  %5 = load ptr, ptr %3, align 8, !tbaa !9
  %6 = getelementptr inbounds nuw %struct.ossl_dispatch_st, ptr %5, i32 0, i32 0
  %7 = load i32, ptr %6, align 8, !tbaa !21
  %8 = icmp ne i32 %7, 0
  br i1 %8, label %9, label %21

9:                                                ; preds = %4
  %10 = load ptr, ptr %3, align 8, !tbaa !9
  %11 = getelementptr inbounds nuw %struct.ossl_dispatch_st, ptr %10, i32 0, i32 0
  %12 = load i32, ptr %11, align 8, !tbaa !21
  %13 = icmp eq i32 %12, 42
  br i1 %13, label %14, label %17

14:                                               ; preds = %9
  %15 = load ptr, ptr %3, align 8, !tbaa !9
  %16 = call ptr @OSSL_FUNC_keymgmt_export(ptr noundef %15)
  store ptr %16, ptr %2, align 8
  br label %22

17:                                               ; preds = %9
  br label %18

18:                                               ; preds = %17
  %19 = load ptr, ptr %3, align 8, !tbaa !9
  %20 = getelementptr inbounds nuw %struct.ossl_dispatch_st, ptr %19, i32 1
  store ptr %20, ptr %3, align 8, !tbaa !9
  br label %4, !llvm.loop !137

21:                                               ; preds = %4
  store ptr null, ptr %2, align 8
  br label %22

22:                                               ; preds = %21, %14
  %23 = load ptr, ptr %2, align 8
  ret ptr %23
}

; Function Attrs: nounwind uwtable
define internal i32 @der2key_export_object(ptr noundef %0, ptr noundef %1, i64 noundef %2, ptr noundef %3, ptr noundef %4) #0 {
  %6 = alloca i32, align 4
  %7 = alloca ptr, align 8
  %8 = alloca ptr, align 8
  %9 = alloca i64, align 8
  %10 = alloca ptr, align 8
  %11 = alloca ptr, align 8
  %12 = alloca ptr, align 8
  %13 = alloca ptr, align 8
  %14 = alloca ptr, align 8
  %15 = alloca i32, align 4
  store ptr %0, ptr %7, align 8, !tbaa !13
  store ptr %1, ptr %8, align 8, !tbaa !13
  store i64 %2, ptr %9, align 8, !tbaa !35
  store ptr %3, ptr %10, align 8, !tbaa !13
  store ptr %4, ptr %11, align 8, !tbaa !13
  call void @llvm.lifetime.start.p0(i64 8, ptr %12) #8
  %16 = load ptr, ptr %7, align 8, !tbaa !13
  store ptr %16, ptr %12, align 8, !tbaa !103
  call void @llvm.lifetime.start.p0(i64 8, ptr %13) #8
  %17 = load ptr, ptr %12, align 8, !tbaa !103
  %18 = getelementptr inbounds nuw %struct.der2key_ctx_st, ptr %17, i32 0, i32 1
  %19 = load ptr, ptr %18, align 8, !tbaa !108
  %20 = getelementptr inbounds nuw %struct.keytype_desc_st, ptr %19, i32 0, i32 1
  %21 = load ptr, ptr %20, align 8, !tbaa !121
  %22 = call ptr @xor_prov_get_keymgmt_export(ptr noundef %21)
  store ptr %22, ptr %13, align 8, !tbaa !13
  call void @llvm.lifetime.start.p0(i64 8, ptr %14) #8
  %23 = load i64, ptr %9, align 8, !tbaa !35
  %24 = icmp eq i64 %23, 8
  br i1 %24, label %25, label %39

25:                                               ; preds = %5
  %26 = load ptr, ptr %13, align 8, !tbaa !13
  %27 = icmp ne ptr %26, null
  br i1 %27, label %28, label %39

28:                                               ; preds = %25
  %29 = load ptr, ptr %8, align 8, !tbaa !13
  %30 = load ptr, ptr %29, align 8, !tbaa !13
  store ptr %30, ptr %14, align 8, !tbaa !13
  %31 = load ptr, ptr %13, align 8, !tbaa !13
  %32 = load ptr, ptr %14, align 8, !tbaa !13
  %33 = load ptr, ptr %12, align 8, !tbaa !103
  %34 = getelementptr inbounds nuw %struct.der2key_ctx_st, ptr %33, i32 0, i32 2
  %35 = load i32, ptr %34, align 8, !tbaa !105
  %36 = load ptr, ptr %10, align 8, !tbaa !13
  %37 = load ptr, ptr %11, align 8, !tbaa !13
  %38 = call i32 %31(ptr noundef %32, i32 noundef %35, ptr noundef %36, ptr noundef %37)
  store i32 %38, ptr %6, align 4
  store i32 1, ptr %15, align 4
  br label %40

39:                                               ; preds = %25, %5
  store i32 0, ptr %6, align 4
  store i32 1, ptr %15, align 4
  br label %40

40:                                               ; preds = %39, %28
  call void @llvm.lifetime.end.p0(i64 8, ptr %14) #8
  call void @llvm.lifetime.end.p0(i64 8, ptr %13) #8
  call void @llvm.lifetime.end.p0(i64 8, ptr %12) #8
  %41 = load i32, ptr %6, align 4
  ret i32 %41
}