; Function Attrs: nounwind uwtable
define internal i32 @der2key_export_object(ptr noundef readonly captures(none) %0, ptr noundef readonly captures(none) %1, i64 noundef %2, ptr noundef %3, ptr noundef %4) #0 {
  %6 = getelementptr inbounds nuw i8, ptr %0, i64 8
  %7 = load ptr, ptr %6, align 8, !tbaa !76
  %8 = getelementptr inbounds nuw i8, ptr %7, i64 8
  %9 = load ptr, ptr %8, align 8, !tbaa !96
  br label %10

10:                                               ; preds = %12, %5
  %.0.i = phi ptr [ %9, %5 ], [ %13, %12 ]
  %11 = load i32, ptr %.0.i, align 8, !tbaa !19
  switch i32 %11, label %12 [
    i32 0, label %xor_prov_get_keymgmt_export.exit.thread
    i32 42, label %xor_prov_get_keymgmt_export.exit
  ]

12:                                               ; preds = %10
  %13 = getelementptr inbounds nuw i8, ptr %.0.i, i64 16
  br label %10, !llvm.loop !97

xor_prov_get_keymgmt_export.exit:                 ; preds = %10
  %14 = getelementptr i8, ptr %.0.i, i64 8
  %.0.val.i = load ptr, ptr %14, align 8, !tbaa !21
  %15 = icmp eq i64 %2, 8
  %16 = icmp ne ptr %.0.val.i, null
  %or.cond = select i1 %15, i1 %16, i1 false
  br i1 %or.cond, label %17, label %xor_prov_get_keymgmt_export.exit.thread

17:                                               ; preds = %xor_prov_get_keymgmt_export.exit
  %18 = load ptr, ptr %1, align 8, !tbaa !10
  %19 = getelementptr inbounds nuw i8, ptr %0, i64 16
  %20 = load i32, ptr %19, align 8, !tbaa !80
  %21 = tail call i32 %.0.val.i(ptr noundef %18, i32 noundef %20, ptr noundef %3, ptr noundef %4) #16
  br label %xor_prov_get_keymgmt_export.exit.thread

xor_prov_get_keymgmt_export.exit.thread:          ; preds = %10, %xor_prov_get_keymgmt_export.exit, %17
  %.0 = phi i32 [ %21, %17 ], [ 0, %xor_prov_get_keymgmt_export.exit ], [ %11, %10 ]
  ret i32 %.0
}